; ModuleID = '51/81.c'
source_filename = "51/81.c"
target datalayout = "e-m:e-p270:32:32-p271:32:32-p272:64:64-i64:64-f80:128-n8:16:32:64-S128"
target triple = "x86_64-pc-linux-gnu"

@.str = private unnamed_addr constant [3 x i8] c"%d\00", align 1
@.str.1 = private unnamed_addr constant [3 x i8] c"%s\00", align 1
@.str.2 = private unnamed_addr constant [3 x i8] c"NO\00", align 1
@.str.3 = private unnamed_addr constant [4 x i8] c"%d\0A\00", align 1
@.str.4 = private unnamed_addr constant [3 x i8] c"%c\00", align 1
@.str.5 = private unnamed_addr constant [2 x i8] c"\0A\00", align 1

; Function Attrs: noinline nounwind uwtable
define dso_local i32 @main() #0 {
  %1 = alloca i32, align 4
  %2 = alloca [502 x i8], align 16
  %3 = alloca i32, align 4
  %4 = alloca i32, align 4
  %5 = alloca i32, align 4
  %6 = alloca i32, align 4
  %7 = alloca i32, align 4
  %8 = alloca i32, align 4
  %9 = alloca i32, align 4
  %10 = alloca i32, align 4
  %11 = alloca [502 x i32], align 16
  store i32 0, i32* %1, align 4
  %12 = call i32 (i8*, ...) @__isoc99_scanf(i8* getelementptr inbounds ([3 x i8], [3 x i8]* @.str, i64 0, i64 0), i32* %3)
  %13 = getelementptr inbounds [502 x i8], [502 x i8]* %2, i64 0, i64 0
  %14 = call i32 (i8*, ...) @__isoc99_scanf(i8* getelementptr inbounds ([3 x i8], [3 x i8]* @.str.1, i64 0, i64 0), i8* %13)
  %15 = getelementptr inbounds [502 x i8], [502 x i8]* %2, i64 0, i64 0
  %16 = call i64 @strlen(i8* %15) #3
  %17 = trunc i64 %16 to i32
  store i32 %17, i32* %10, align 4
  store i32 0, i32* %4, align 4
  br label %18

18:                                               ; preds = %26, %0
  %19 = load i32, i32* %4, align 4
  %20 = load i32, i32* %10, align 4
  %21 = icmp sle i32 %19, %20
  br i1 %21, label %22, label %29

22:                                               ; preds = %18
  %23 = load i32, i32* %4, align 4
  %24 = sext i32 %23 to i64
  %25 = getelementptr inbounds [502 x i32], [502 x i32]* %11, i64 0, i64 %24
  store i32 0, i32* %25, align 4
  br label %26

26:                                               ; preds = %22
  %27 = load i32, i32* %4, align 4
  %28 = add nsw i32 %27, 1
  store i32 %28, i32* %4, align 4
  br label %18

29:                                               ; preds = %18
  store i32 0, i32* %4, align 4
  br label %30

30:                                               ; preds = %88, %29
  %31 = load i32, i32* %4, align 4
  %32 = load i32, i32* %10, align 4
  %33 = load i32, i32* %3, align 4
  %34 = sub nsw i32 %32, %33
  %35 = icmp sle i32 %31, %34
  br i1 %35, label %36, label %91

36:                                               ; preds = %30
  %37 = load i32, i32* %4, align 4
  store i32 %37, i32* %5, align 4
  br label %38

38:                                               ; preds = %84, %36
  %39 = load i32, i32* %5, align 4
  %40 = load i32, i32* %10, align 4
  %41 = load i32, i32* %3, align 4
  %42 = sub nsw i32 %40, %41
  %43 = icmp sle i32 %39, %42
  br i1 %43, label %44, label %87

44:                                               ; preds = %38
  store i32 0, i32* %7, align 4
  store i32 0, i32* %6, align 4
  br label %45

45:                                               ; preds = %80, %44
  %46 = load i32, i32* %6, align 4
  %47 = load i32, i32* %3, align 4
  %48 = sub nsw i32 %47, 1
  %49 = icmp sle i32 %46, %48
  br i1 %49, label %50, label %83

50:                                               ; preds = %45
  %51 = load i32, i32* %4, align 4
  %52 = load i32, i32* %6, align 4
  %53 = add nsw i32 %51, %52
  %54 = sext i32 %53 to i64
  %55 = getelementptr inbounds [502 x i8], [502 x i8]* %2, i64 0, i64 %54
  %56 = load i8, i8* %55, align 1
  %57 = sext i8 %56 to i32
  %58 = load i32, i32* %5, align 4
  %59 = load i32, i32* %6, align 4
  %60 = add nsw i32 %58, %59
  %61 = sext i32 %60 to i64
  %62 = getelementptr inbounds [502 x i8], [502 x i8]* %2, i64 0, i64 %61
  %63 = load i8, i8* %62, align 1
  %64 = sext i8 %63 to i32
  %65 = icmp eq i32 %57, %64
  br i1 %65, label %66, label %69

66:                                               ; preds = %50
  %67 = load i32, i32* %7, align 4
  %68 = add nsw i32 %67, 1
  store i32 %68, i32* %7, align 4
  br label %69

69:                                               ; preds = %66, %50
  %70 = load i32, i32* %7, align 4
  %71 = load i32, i32* %3, align 4
  %72 = icmp eq i32 %70, %71
  br i1 %72, label %73, label %79

73:                                               ; preds = %69
  %74 = load i32, i32* %4, align 4
  %75 = sext i32 %74 to i64
  %76 = getelementptr inbounds [502 x i32], [502 x i32]* %11, i64 0, i64 %75
  %77 = load i32, i32* %76, align 4
  %78 = add nsw i32 %77, 1
  store i32 %78, i32* %76, align 4
  br label %79

79:                                               ; preds = %73, %69
  br label %80

80:                                               ; preds = %79
  %81 = load i32, i32* %6, align 4
  %82 = add nsw i32 %81, 1
  store i32 %82, i32* %6, align 4
  br label %45

83:                                               ; preds = %45
  br label %84

84:                                               ; preds = %83
  %85 = load i32, i32* %5, align 4
  %86 = add nsw i32 %85, 1
  store i32 %86, i32* %5, align 4
  br label %38

87:                                               ; preds = %38
  br label %88

88:                                               ; preds = %87
  %89 = load i32, i32* %4, align 4
  %90 = add nsw i32 %89, 1
  store i32 %90, i32* %4, align 4
  br label %30

91:                                               ; preds = %30
  %92 = getelementptr inbounds [502 x i32], [502 x i32]* %11, i64 0, i64 0
  %93 = load i32, i32* %92, align 16
  store i32 %93, i32* %8, align 4
  store i32 0, i32* %9, align 4
  store i32 0, i32* %4, align 4
  br label %94

94:                                               ; preds = %123, %91
  %95 = load i32, i32* %4, align 4
  %96 = load i32, i32* %10, align 4
  %97 = load i32, i32* %3, align 4
  %98 = sub nsw i32 %96, %97
  %99 = icmp sle i32 %95, %98
  br i1 %99, label %100, label %126

100:                                              ; preds = %94
  %101 = load i32, i32* %8, align 4
  %102 = load i32, i32* %4, align 4
  %103 = sext i32 %102 to i64
  %104 = getelementptr inbounds [502 x i32], [502 x i32]* %11, i64 0, i64 %103
  %105 = load i32, i32* %104, align 4
  %106 = icmp slt i32 %101, %105
  br i1 %106, label %107, label %112

107:                                              ; preds = %100
  store i32 1, i32* %9, align 4
  %108 = load i32, i32* %4, align 4
  %109 = sext i32 %108 to i64
  %110 = getelementptr inbounds [502 x i32], [502 x i32]* %11, i64 0, i64 %109
  %111 = load i32, i32* %110, align 4
  store i32 %111, i32* %8, align 4
  br label %112

112:                                              ; preds = %107, %100
  %113 = load i32, i32* %8, align 4
  %114 = load i32, i32* %4, align 4
  %115 = sext i32 %114 to i64
  %116 = getelementptr inbounds [502 x i32], [502 x i32]* %11, i64 0, i64 %115
  %117 = load i32, i32* %116, align 4
  %118 = icmp eq i32 %113, %117
  br i1 %118, label %119, label %122

119:                                              ; preds = %112
  %120 = load i32, i32* %9, align 4
  %121 = add nsw i32 %120, 1
  store i32 %121, i32* %9, align 4
  br label %122

122:                                              ; preds = %119, %112
  br label %123

123:                                              ; preds = %122
  %124 = load i32, i32* %4, align 4
  %125 = add nsw i32 %124, 1
  store i32 %125, i32* %4, align 4
  br label %94

126:                                              ; preds = %94
  %127 = load i32, i32* %8, align 4
  %128 = icmp eq i32 %127, 1
  br i1 %128, label %129, label %131

129:                                              ; preds = %126
  %130 = call i32 (i8*, ...) @printf(i8* getelementptr inbounds ([3 x i8], [3 x i8]* @.str.2, i64 0, i64 0))
  store i32 0, i32* %1, align 4
  br label %173

131:                                              ; preds = %126
  %132 = load i32, i32* %8, align 4
  %133 = call i32 (i8*, ...) @printf(i8* getelementptr inbounds ([4 x i8], [4 x i8]* @.str.3, i64 0, i64 0), i32 %132)
  store i32 0, i32* %5, align 4
  br label %134

134:                                              ; preds = %168, %131
  %135 = load i32, i32* %5, align 4
  %136 = load i32, i32* %10, align 4
  %137 = load i32, i32* %3, align 4
  %138 = sub nsw i32 %136, %137
  %139 = icmp sle i32 %135, %138
  br i1 %139, label %140, label %171

140:                                              ; preds = %134
  %141 = load i32, i32* %5, align 4
  %142 = sext i32 %141 to i64
  %143 = getelementptr inbounds [502 x i32], [502 x i32]* %11, i64 0, i64 %142
  %144 = load i32, i32* %143, align 4
  %145 = load i32, i32* %8, align 4
  %146 = icmp eq i32 %144, %145
  br i1 %146, label %147, label %167

147:                                              ; preds = %140
  store i32 0, i32* %6, align 4
  br label %148

148:                                              ; preds = %162, %147
  %149 = load i32, i32* %6, align 4
  %150 = load i32, i32* %3, align 4
  %151 = sub nsw i32 %150, 1
  %152 = icmp sle i32 %149, %151
  br i1 %152, label %153, label %165

153:                                              ; preds = %148
  %154 = load i32, i32* %5, align 4
  %155 = load i32, i32* %6, align 4
  %156 = add nsw i32 %154, %155
  %157 = sext i32 %156 to i64
  %158 = getelementptr inbounds [502 x i8], [502 x i8]* %2, i64 0, i64 %157
  %159 = load i8, i8* %158, align 1
  %160 = sext i8 %159 to i32
  %161 = call i32 (i8*, ...) @printf(i8* getelementptr inbounds ([3 x i8], [3 x i8]* @.str.4, i64 0, i64 0), i32 %160)
  br label %162

162:                                              ; preds = %153
  %163 = load i32, i32* %6, align 4
  %164 = add nsw i32 %163, 1
  store i32 %164, i32* %6, align 4
  br label %148

165:                                              ; preds = %148
  %166 = call i32 (i8*, ...) @printf(i8* getelementptr inbounds ([2 x i8], [2 x i8]* @.str.5, i64 0, i64 0))
  br label %167

167:                                              ; preds = %165, %140
  br label %168

168:                                              ; preds = %167
  %169 = load i32, i32* %5, align 4
  %170 = add nsw i32 %169, 1
  store i32 %170, i32* %5, align 4
  br label %134

171:                                              ; preds = %134
  %172 = call i32 (i8*, ...) @printf(i8* getelementptr inbounds ([2 x i8], [2 x i8]* @.str.5, i64 0, i64 0))
  store i32 0, i32* %1, align 4
  br label %173

173:                                              ; preds = %171, %129
  %174 = load i32, i32* %1, align 4
  ret i32 %174
}

declare dso_local i32 @__isoc99_scanf(i8*, ...) #1

; Function Attrs: nounwind readonly
declare dso_local i64 @strlen(i8*) #2

declare dso_local i32 @printf(i8*, ...) #1


!llvm.module.flags = !{!0}
!llvm.ident = !{!1}

!0 = !{i32 1, !"wchar_size", i32 4}
!1 = !{!"clang version 10.0.0-4ubuntu1 "}
